; Function Attrs: mustprogress nounwind uwtable
define void @_ZN3zmq17socks_connecter_tD2Ev(ptr noundef nonnull align 8 dereferenceable(3032) %this) unnamed_addr #4 align 2 {
entry:
  %_proxy_addr = getelementptr inbounds i8, ptr %this, i64 2944
  %0 = load ptr, ptr %_proxy_addr, align 8
  %isnull = icmp eq ptr %0, null
  br i1 %isnull, label %delete.end, label %delete.notnull

delete.notnull:                                   ; preds = %entry
  tail call void @_ZN3zmq9address_tD1Ev(ptr noundef nonnull align 8 dereferenceable(80) %0) #13
  tail call void @_ZdlPv(ptr noundef nonnull %0) #15
  br label %delete.end

delete.end:                                       ; preds = %delete.notnull, %entry
  store ptr null, ptr %_proxy_addr, align 8
  %_auth_password = getelementptr inbounds i8, ptr %this, i64 2992
  tail call void @_ZNSt7__cxx1112basic_stringIcSt11char_traitsIcESaIcEED1Ev(ptr noundef nonnull align 8 dereferenceable(32) %_auth_password) #13
  %_auth_username = getelementptr inbounds i8, ptr %this, i64 2960
  tail call void @_ZNSt7__cxx1112basic_stringIcSt11char_traitsIcESaIcEED1Ev(ptr noundef nonnull align 8 dereferenceable(32) %_auth_username) #13
  tail call void @_ZN3zmq23stream_connecter_base_tD2Ev(ptr noundef nonnull align 8 dereferenceable(1544) %this) #13
  ret void
}